target datalayout = "e-m:e-p270:32:32-p271:32:32-p272:64:64-i64:64-i128:128-f80:128-n8:16:32:64-S128"
target triple = "x86_64-pc-linux-gnu"

%struct._psqlSettings = type { ptr, i32, ptr, i8, ptr, ptr, %struct.printQueryOpt, ptr, ptr, ptr, i8, i8, i32, i32, ptr, ptr, i8, [4 x ptr], i8, i32, ptr, i8, i32, ptr, ptr, i64, i64, i8, ptr, ptr, ptr, i8, i8, i8, i8, i8, i8, i8, i32, i32, i32, i32, i32, i32, i32, i32, ptr, ptr, ptr, i32, i8, i32 }
%struct.printQueryOpt = type { %struct.printTableOpt, ptr, ptr, ptr, i8, ptr, i32 }
%struct.printTableOpt = type { i32, i16, i32, i32, i16, i16, i32, i8, i8, i8, i8, i64, ptr, %struct.separator, %struct.separator, [2 x i8], i8, ptr, i32, i32, i32, i32, i32, i32 }
%struct.separator = type { ptr, i8 }

@pset = external global %struct._psqlSettings, align 8
@.str.1 = private unnamed_addr constant [2 x i8] c"'\00", align 1
@completion_charp = internal global ptr null, align 8
@.str.119 = private unnamed_addr constant [1 x i8] zeroinitializer, align 1

; Function Attrs: nounwind uwtable
define internal ptr @dequote_file_name(ptr noundef %0, i32 noundef %1) #0 {
  %3 = alloca ptr, align 8
  %4 = alloca i32, align 4
  %5 = alloca ptr, align 8
  %6 = alloca ptr, align 8
  store ptr %0, ptr %3, align 8
  store i32 %1, ptr %4, align 4
  call void @llvm.lifetime.start.p0(i64 8, ptr %5) #8
  %7 = load i32, ptr %4, align 4
  %8 = icmp eq i32 %7, 39
  br i1 %8, label %9, label %28

9:                                                ; preds = %2
  call void @llvm.lifetime.start.p0(i64 8, ptr %6) #8
  %10 = load ptr, ptr %3, align 8
  %11 = call i64 @strlen(ptr noundef %10) #9
  %12 = add i64 %11, 2
  %13 = call ptr @pg_malloc(i64 noundef %12)
  store ptr %13, ptr %6, align 8
  %14 = load i32, ptr %4, align 4
  %15 = trunc i32 %14 to i8
  %16 = load ptr, ptr %6, align 8
  %17 = getelementptr inbounds i8, ptr %16, i64 0
  store i8 %15, ptr %17, align 1
  %18 = load ptr, ptr %6, align 8
  %19 = getelementptr inbounds i8, ptr %18, i64 1
  %20 = load ptr, ptr %3, align 8
  %21 = call ptr @strcpy(ptr noundef %19, ptr noundef %20) #8
  %22 = load ptr, ptr %6, align 8
  %23 = load ptr, ptr @completion_charp, align 8
  %24 = load i8, ptr %23, align 1
  %25 = load i32, ptr getelementptr inbounds nuw (%struct._psqlSettings, ptr @pset, i32 0, i32 1), align 8
  %26 = call ptr @strtokx(ptr noundef %22, ptr noundef @.str.119, ptr noundef null, ptr noundef @.str.1, i8 noundef signext %24, i1 noundef zeroext false, i1 noundef zeroext true, i32 noundef %25)
  store ptr %26, ptr %5, align 8
  %27 = load ptr, ptr %6, align 8
  call void @free(ptr noundef %27) #8
  call void @llvm.lifetime.end.p0(i64 8, ptr %6) #8
  br label %34

28:                                               ; preds = %2
  %29 = load ptr, ptr %3, align 8
  %30 = load ptr, ptr @completion_charp, align 8
  %31 = load i8, ptr %30, align 1
  %32 = load i32, ptr getelementptr inbounds nuw (%struct._psqlSettings, ptr @pset, i32 0, i32 1), align 8
  %33 = call ptr @strtokx(ptr noundef %29, ptr noundef @.str.119, ptr noundef null, ptr noundef @.str.1, i8 noundef signext %31, i1 noundef zeroext false, i1 noundef zeroext true, i32 noundef %32)
  store ptr %33, ptr %5, align 8
  br label %34

34:                                               ; preds = %28, %9
  %35 = load ptr, ptr %5, align 8
  %36 = icmp ne ptr %35, null
  br i1 %36, label %39, label %37

37:                                               ; preds = %34
  %38 = load ptr, ptr %3, align 8
  store ptr %38, ptr %5, align 8
  br label %39

39:                                               ; preds = %37, %34
  %40 = load ptr, ptr %5, align 8
  %41 = call ptr @pg_strdup(ptr noundef %40)
  call void @llvm.lifetime.end.p0(i64 8, ptr %5) #8
  ret ptr %41
}