; Function Attrs: nounwind uwtable
define internal ptr @dequote_file_name(ptr noundef %0, i32 noundef %1) #0 {
  %3 = icmp eq i32 %1, 39
  br i1 %3, label %4, label %14

4:                                                ; preds = %2
  %5 = tail call i64 @strlen(ptr noundef nonnull dereferenceable(1) %0) #13
  %6 = add i64 %5, 2
  %7 = tail call ptr @pg_malloc(i64 noundef %6) #11
  store i8 39, ptr %7, align 1
  %8 = getelementptr inbounds nuw i8, ptr %7, i64 1
  %9 = tail call ptr @strcpy(ptr noundef nonnull dereferenceable(1) %8, ptr noundef nonnull dereferenceable(1) %0) #11
  %10 = load ptr, ptr @completion_charp, align 8
  %11 = load i8, ptr %10, align 1
  %12 = load i32, ptr getelementptr inbounds nuw (i8, ptr @pset, i64 8), align 8
  %13 = tail call ptr @strtokx(ptr noundef nonnull %7, ptr noundef nonnull @.str.119, ptr noundef null, ptr noundef nonnull @.str.1, i8 noundef signext %11, i1 noundef zeroext false, i1 noundef zeroext true, i32 noundef %12) #11
  tail call void @free(ptr noundef %7) #11
  br label %19

14:                                               ; preds = %2
  %15 = load ptr, ptr @completion_charp, align 8
  %16 = load i8, ptr %15, align 1
  %17 = load i32, ptr getelementptr inbounds nuw (i8, ptr @pset, i64 8), align 8
  %18 = tail call ptr @strtokx(ptr noundef %0, ptr noundef nonnull @.str.119, ptr noundef null, ptr noundef nonnull @.str.1, i8 noundef signext %16, i1 noundef zeroext false, i1 noundef zeroext true, i32 noundef %17) #11
  br label %19

19:                                               ; preds = %14, %4
  %.0 = phi ptr [ %13, %4 ], [ %18, %14 ]
  %.not = icmp eq ptr %.0, null
  %spec.select = select i1 %.not, ptr %0, ptr %.0
  %20 = tail call ptr @pg_strdup(ptr noundef %spec.select) #11
  ret ptr %20
}